; Function Attrs: mustprogress nounwind uwtable
define hidden noundef zeroext i1 @_ZN10VectorNode8is_shiftEP4Node(ptr noundef %0) local_unnamed_addr #1 align 2 {
  %2 = load ptr, ptr %0, align 8
  %3 = load ptr, ptr %2, align 8
  %4 = tail call noundef i32 %3(ptr noundef nonnull align 8 dereferenceable(52) %0) #8
  switch i32 %4, label %5 [
    i32 185, label %_ZN10VectorNode15is_shift_opcodeEi.exit
    i32 186, label %_ZN10VectorNode15is_shift_opcodeEi.exit
    i32 283, label %_ZN10VectorNode15is_shift_opcodeEi.exit
    i32 284, label %_ZN10VectorNode15is_shift_opcodeEi.exit
    i32 349, label %_ZN10VectorNode15is_shift_opcodeEi.exit
    i32 350, label %_ZN10VectorNode15is_shift_opcodeEi.exit
    i32 351, label %_ZN10VectorNode15is_shift_opcodeEi.exit
    i32 352, label %_ZN10VectorNode15is_shift_opcodeEi.exit
  ]

5:                                                ; preds = %1
  br label %_ZN10VectorNode15is_shift_opcodeEi.exit

_ZN10VectorNode15is_shift_opcodeEi.exit:          ; preds = %1, %1, %1, %1, %1, %1, %1, %1, %5
  %.0.i = phi i1 [ false, %5 ], [ true, %1 ], [ true, %1 ], [ true, %1 ], [ true, %1 ], [ true, %1 ], [ true, %1 ], [ true, %1 ], [ true, %1 ]
  ret i1 %.0.i
}